target datalayout = "e-m:e-p270:32:32-p271:32:32-p272:64:64-i64:64-i128:128-f80:128-n8:16:32:64-S128"
target triple = "x86_64-pc-linux-gnu"

%class.ZThreadLocalData = type { i64, i64, i64, i64, i64, i64, i64, ptr, [2 x %class.ZMarkThreadLocalStacks], ptr }
%class.ZMarkThreadLocalStacks = type { ptr, [16 x ptr] }
%class.Thread = type { %class.ThreadShadow.base, i64, [43 x i64], ptr, ptr, i32, ptr, i64, i64, %class.ThreadLocalAllocBuffer, i64, %class.ThreadHeapSampler, %class.ThreadStatisticalInfo, %class.JfrThreadLocal, ptr, ptr, ptr, ptr, ptr, ptr, i64, i32, i32, ptr, i32, i32, i32, i32, i8, ptr }
%class.ThreadShadow.base = type <{ ptr, ptr, ptr, i32 }>
%class.ThreadLocalAllocBuffer = type <{ ptr, ptr, ptr, ptr, ptr, i64, i64, i64, i64, i32, i32, i32, i32, i64, %class.AdaptiveWeightedAverage, [4 x i8] }>
%class.AdaptiveWeightedAverage = type { float, i32, i32, i8, float }
%class.ThreadHeapSampler = type { i64 }
%class.ThreadStatisticalInfo = type { i64, i64 }
%class.JfrThreadLocal = type <{ ptr, ptr, ptr, ptr, ptr, ptr, ptr, ptr, ptr, ptr, %class.RefCountHandle, i64, i64, i64, i64, i64, i64, i64, i64, i64, i64, i64, i32, i32, i32, i16, i8, i8, i8, i8, i8, [5 x i8] }>
%class.RefCountHandle = type { ptr }

@ZPointerLoadBadMask = external global i64, align 8
@ZPointerLoadGoodMask = external global i64, align 8
@ZPointerMarkBadMask = external global i64, align 8
@ZPointerStoreBadMask = external global i64, align 8
@ZPointerStoreGoodMask = external global i64, align 8

; Function Attrs: mustprogress nounwind uwtable
define linkonce_odr hidden noundef ptr @_ZN6Thread7gc_dataI16ZThreadLocalDataEEPT_v(ptr noundef nonnull align 8 dereferenceable(888) %0) #1 comdat align 2 {
  %2 = alloca ptr, align 8
  store ptr %0, ptr %2, align 8
  %3 = load ptr, ptr %2, align 8
  %4 = getelementptr inbounds %class.Thread, ptr %3, i32 0, i32 2
  ret ptr %4
}

; Function Attrs: mustprogress nounwind uwtable
define linkonce_odr hidden noundef ptr @_ZN16ZThreadLocalData4dataEP6Thread(ptr noundef %0) #1 comdat align 2 {
  %2 = alloca ptr, align 8
  store ptr %0, ptr %2, align 8
  %3 = load ptr, ptr %2, align 8
  %4 = call noundef ptr @_ZN6Thread7gc_dataI16ZThreadLocalDataEEPT_v(ptr noundef nonnull align 8 dereferenceable(888) %3)
  ret ptr %4
}

; Function Attrs: mustprogress nounwind uwtable
define linkonce_odr hidden noundef ptr @_ZN16ZThreadLocalData20store_barrier_bufferEP6Thread(ptr noundef %0) #1 comdat align 2 {
  %2 = alloca ptr, align 8
  store ptr %0, ptr %2, align 8
  %3 = load ptr, ptr %2, align 8
  %4 = call noundef ptr @_ZN16ZThreadLocalData4dataEP6Thread(ptr noundef %3)
  %5 = getelementptr inbounds %class.ZThreadLocalData, ptr %4, i32 0, i32 7
  %6 = load ptr, ptr %5, align 8
  ret ptr %6
}

; Function Attrs: mustprogress nounwind uwtable
define linkonce_odr hidden noundef ptr @_ZN10JavaThread4castEP6Thread(ptr noundef %0) #1 comdat align 2 {
  %2 = alloca ptr, align 8
  store ptr %0, ptr %2, align 8
  %3 = load ptr, ptr %2, align 8
  ret ptr %3
}

; Function Attrs: mustprogress nounwind uwtable
define linkonce_odr hidden void @_ZN16ZThreadLocalData20set_nmethod_disarmedEP6Threadm(ptr noundef %0, i64 noundef %1) #1 comdat align 2 {
  %3 = alloca ptr, align 8
  %4 = alloca i64, align 8
  store ptr %0, ptr %3, align 8
  store i64 %1, ptr %4, align 8
  %5 = load i64, ptr %4, align 8
  %6 = load ptr, ptr %3, align 8
  %7 = call noundef ptr @_ZN16ZThreadLocalData4dataEP6Thread(ptr noundef %6)
  %8 = getelementptr inbounds %class.ZThreadLocalData, ptr %7, i32 0, i32 6
  store i64 %5, ptr %8, align 8
  ret void
}

; Function Attrs: mustprogress nounwind uwtable
define linkonce_odr hidden void @_ZN16ZThreadLocalData19set_store_good_maskEP6Threadm(ptr noundef %0, i64 noundef %1) #1 comdat align 2 {
  %3 = alloca ptr, align 8
  %4 = alloca i64, align 8
  store ptr %0, ptr %3, align 8
  store i64 %1, ptr %4, align 8
  %5 = load i64, ptr %4, align 8
  %6 = load ptr, ptr %3, align 8
  %7 = call noundef ptr @_ZN16ZThreadLocalData4dataEP6Thread(ptr noundef %6)
  %8 = getelementptr inbounds %class.ZThreadLocalData, ptr %7, i32 0, i32 3
  store i64 %5, ptr %8, align 8
  ret void
}

; Function Attrs: mustprogress nounwind uwtable
define linkonce_odr hidden void @_ZN16ZThreadLocalData18set_store_bad_maskEP6Threadm(ptr noundef %0, i64 noundef %1) #1 comdat align 2 {
  %3 = alloca ptr, align 8
  %4 = alloca i64, align 8
  store ptr %0, ptr %3, align 8
  store i64 %1, ptr %4, align 8
  %5 = load i64, ptr %4, align 8
  %6 = load ptr, ptr %3, align 8
  %7 = call noundef ptr @_ZN16ZThreadLocalData4dataEP6Thread(ptr noundef %6)
  %8 = getelementptr inbounds %class.ZThreadLocalData, ptr %7, i32 0, i32 4
  store i64 %5, ptr %8, align 8
  ret void
}

; Function Attrs: mustprogress nounwind uwtable
define linkonce_odr hidden void @_ZN16ZThreadLocalData17set_mark_bad_maskEP6Threadm(ptr noundef %0, i64 noundef %1) #1 comdat align 2 {
  %3 = alloca ptr, align 8
  %4 = alloca i64, align 8
  store ptr %0, ptr %3, align 8
  store i64 %1, ptr %4, align 8
  %5 = load i64, ptr %4, align 8
  %6 = load ptr, ptr %3, align 8
  %7 = call noundef ptr @_ZN16ZThreadLocalData4dataEP6Thread(ptr noundef %6)
  %8 = getelementptr inbounds %class.ZThreadLocalData, ptr %7, i32 0, i32 2
  store i64 %5, ptr %8, align 8
  ret void
}

; Function Attrs: mustprogress nounwind uwtable
define linkonce_odr hidden void @_ZN16ZThreadLocalData18set_load_good_maskEP6Threadm(ptr noundef %0, i64 noundef %1) #1 comdat align 2 {
  %3 = alloca ptr, align 8
  %4 = alloca i64, align 8
  store ptr %0, ptr %3, align 8
  store i64 %1, ptr %4, align 8
  %5 = load i64, ptr %4, align 8
  %6 = load ptr, ptr %3, align 8
  %7 = call noundef ptr @_ZN16ZThreadLocalData4dataEP6Thread(ptr noundef %6)
  %8 = getelementptr inbounds %class.ZThreadLocalData, ptr %7, i32 0, i32 0
  store i64 %5, ptr %8, align 8
  ret void
}

; Function Attrs: mustprogress nounwind uwtable
define linkonce_odr hidden void @_ZN16ZThreadLocalData17set_load_bad_maskEP6Threadm(ptr noundef %0, i64 noundef %1) #1 comdat align 2 {
  %3 = alloca ptr, align 8
  %4 = alloca i64, align 8
  store ptr %0, ptr %3, align 8
  store i64 %1, ptr %4, align 8
  %5 = load i64, ptr %4, align 8
  %6 = load ptr, ptr %3, align 8
  %7 = call noundef ptr @_ZN16ZThreadLocalData4dataEP6Thread(ptr noundef %6)
  %8 = getelementptr inbounds %class.ZThreadLocalData, ptr %7, i32 0, i32 1
  store i64 %5, ptr %8, align 8
  ret void
}

; Function Attrs: mustprogress nounwind uwtable
define hidden void @_ZN11ZBarrierSet16on_thread_attachEP6Thread(ptr noundef nonnull align 8 dereferenceable(64) %0, ptr noundef %1) unnamed_addr #1 align 2 {
  %3 = alloca i64, align 8
  %4 = alloca i8, align 1
  %5 = alloca i64, align 8
  %6 = alloca ptr, align 8
  %7 = alloca ptr, align 8
  %8 = alloca ptr, align 8
  %9 = alloca ptr, align 8
  store ptr %0, ptr %6, align 8
  store ptr %1, ptr %7, align 8
  %10 = load ptr, ptr %7, align 8
  %11 = load i64, ptr @ZPointerLoadBadMask, align 8
  call void @_ZN16ZThreadLocalData17set_load_bad_maskEP6Threadm(ptr noundef %10, i64 noundef %11)
  %12 = load ptr, ptr %7, align 8
  %13 = load i64, ptr @ZPointerLoadGoodMask, align 8
  call void @_ZN16ZThreadLocalData18set_load_good_maskEP6Threadm(ptr noundef %12, i64 noundef %13)
  %14 = load ptr, ptr %7, align 8
  %15 = load i64, ptr @ZPointerMarkBadMask, align 8
  call void @_ZN16ZThreadLocalData17set_mark_bad_maskEP6Threadm(ptr noundef %14, i64 noundef %15)
  %16 = load ptr, ptr %7, align 8
  %17 = load i64, ptr @ZPointerStoreBadMask, align 8
  call void @_ZN16ZThreadLocalData18set_store_bad_maskEP6Threadm(ptr noundef %16, i64 noundef %17)
  %18 = load ptr, ptr %7, align 8
  %19 = load i64, ptr @ZPointerStoreGoodMask, align 8
  call void @_ZN16ZThreadLocalData19set_store_good_maskEP6Threadm(ptr noundef %18, i64 noundef %19)
  %20 = load ptr, ptr %7, align 8
  %21 = load i64, ptr @ZPointerStoreGoodMask, align 8
  call void @_ZN16ZThreadLocalData20set_nmethod_disarmedEP6Threadm(ptr noundef %20, i64 noundef %21)
  %22 = load ptr, ptr %7, align 8
  %23 = load ptr, ptr %22, align 8
  %24 = getelementptr inbounds ptr, ptr %23, i64 7
  %25 = load ptr, ptr %24, align 8
  %26 = call noundef zeroext i1 %25(ptr noundef nonnull align 8 dereferenceable(888) %22)
  br i1 %26, label %27, label %39

27:                                               ; preds = %2
  %28 = load ptr, ptr %7, align 8
  %29 = call noundef ptr @_ZN10JavaThread4castEP6Thread(ptr noundef %28)
  store ptr %29, ptr %8, align 8
  store i64 296, ptr %5, align 8
  %30 = load i64, ptr %5, align 8
  store i64 %30, ptr %3, align 8
  store i8 2, ptr %4, align 1
  %31 = load i64, ptr %3, align 8
  %32 = load i8, ptr %4, align 1
  %33 = call noundef ptr @_Z12AllocateHeapm8MEMFLAGSN17AllocFailStrategy13AllocFailEnumE(i64 noundef %31, i8 noundef zeroext %32, i32 noundef 0) #6
  %34 = load ptr, ptr %8, align 8
  call void @_ZN15ZStackWatermarkC1EP10JavaThread(ptr noundef nonnull align 8 dereferenceable(296) %33, ptr noundef %34)
  store ptr %33, ptr %9, align 8
  %35 = load ptr, ptr %8, align 8
  %36 = load ptr, ptr %9, align 8
  call void @_ZN17StackWatermarkSet13add_watermarkEP10JavaThreadP14StackWatermark(ptr noundef %35, ptr noundef %36)
  %37 = load ptr, ptr %8, align 8
  %38 = call noundef ptr @_ZN16ZThreadLocalData20store_barrier_bufferEP6Thread(ptr noundef %37)
  call void @_ZN19ZStoreBarrierBuffer10initializeEv(ptr noundef nonnull align 8 dereferenceable(832) %38)
  br label %39

39:                                               ; preds = %27, %2
  ret void
}