; Function Attrs: mustprogress nounwind uwtable
define hidden void @_ZN11ZBarrierSet16on_thread_attachEP6Thread(ptr nocapture nonnull readnone align 8 %0, ptr noundef %1) unnamed_addr #0 align 2 {
  %3 = load i64, ptr @ZPointerLoadBadMask, align 8
  %4 = getelementptr inbounds i8, ptr %1, i64 48
  store i64 %3, ptr %4, align 8
  %5 = load i64, ptr @ZPointerLoadGoodMask, align 8
  %6 = getelementptr inbounds i8, ptr %1, i64 40
  store i64 %5, ptr %6, align 8
  %7 = load i64, ptr @ZPointerMarkBadMask, align 8
  %8 = getelementptr inbounds i8, ptr %1, i64 56
  store i64 %7, ptr %8, align 8
  %9 = load i64, ptr @ZPointerStoreBadMask, align 8
  %10 = getelementptr inbounds i8, ptr %1, i64 72
  store i64 %9, ptr %10, align 8
  %11 = load i64, ptr @ZPointerStoreGoodMask, align 8
  %12 = getelementptr inbounds i8, ptr %1, i64 64
  store i64 %11, ptr %12, align 8
  %13 = getelementptr inbounds i8, ptr %1, i64 88
  store i64 %11, ptr %13, align 8
  %14 = load ptr, ptr %1, align 8
  %15 = getelementptr inbounds i8, ptr %14, i64 56
  %16 = load ptr, ptr %15, align 8
  %17 = tail call noundef zeroext i1 %16(ptr noundef nonnull align 8 dereferenceable(888) %1) #7
  br i1 %17, label %18, label %22

18:                                               ; preds = %2
  %19 = tail call noundef ptr @_Z12AllocateHeapm8MEMFLAGSN17AllocFailStrategy13AllocFailEnumE(i64 noundef 296, i8 noundef zeroext 2, i32 noundef 0) #7
  tail call void @_ZN15ZStackWatermarkC1EP10JavaThread(ptr noundef nonnull align 8 dereferenceable(296) %19, ptr noundef nonnull %1) #7
  tail call void @_ZN17StackWatermarkSet13add_watermarkEP10JavaThreadP14StackWatermark(ptr noundef nonnull %1, ptr noundef nonnull %19) #7
  %20 = getelementptr inbounds i8, ptr %1, i64 96
  %21 = load ptr, ptr %20, align 8
  tail call void @_ZN19ZStoreBarrierBuffer10initializeEv(ptr noundef nonnull align 8 dereferenceable(832) %21) #7
  br label %22

22:                                               ; preds = %18, %2
  ret void
}